	.file	"integers.cpp"
	.section	.text._ZN3szn4sinkD2Ev,"axG",@progbits,_ZN3szn4sinkD5Ev,comdat
	.align 2
	.p2align 4,,15
	.weak	_ZN3szn4sinkD2Ev
	.type	_ZN3szn4sinkD2Ev, @function
_ZN3szn4sinkD2Ev:
.LFB4237:
	.cfi_startproc
	movq	$_ZTVN3szn4sinkE+16, (%rdi)
	ret
	.cfi_endproc
.LFE4237:
	.size	_ZN3szn4sinkD2Ev, .-_ZN3szn4sinkD2Ev
	.weak	_ZN3szn4sinkD1Ev
	.set	_ZN3szn4sinkD1Ev,_ZN3szn4sinkD2Ev
	.section	.text._ZN3szn9null_sink5writeEPKcm,"axG",@progbits,_ZN3szn9null_sink5writeEPKcm,comdat
	.align 2
	.p2align 4,,15
	.weak	_ZN3szn9null_sink5writeEPKcm
	.type	_ZN3szn9null_sink5writeEPKcm, @function
_ZN3szn9null_sink5writeEPKcm:
.LFB4240:
	.cfi_startproc
	rep ret
	.cfi_endproc
.LFE4240:
	.size	_ZN3szn9null_sink5writeEPKcm, .-_ZN3szn9null_sink5writeEPKcm
	.section	.text._ZN3szn6sourceD2Ev,"axG",@progbits,_ZN3szn6sourceD5Ev,comdat
	.align 2
	.p2align 4,,15
	.weak	_ZN3szn6sourceD2Ev
	.type	_ZN3szn6sourceD2Ev, @function
_ZN3szn6sourceD2Ev:
.LFB4598:
	.cfi_startproc
	movq	$_ZTVN3szn6sourceE+16, (%rdi)
	ret
	.cfi_endproc
.LFE4598:
	.size	_ZN3szn6sourceD2Ev, .-_ZN3szn6sourceD2Ev
	.weak	_ZN3szn6sourceD1Ev
	.set	_ZN3szn6sourceD1Ev,_ZN3szn6sourceD2Ev
	.section	.text._ZN3szn12empty_source4loadEm,"axG",@progbits,_ZN3szn12empty_source4loadEm,comdat
	.align 2
	.p2align 4,,15
	.weak	_ZN3szn12empty_source4loadEm
	.type	_ZN3szn12empty_source4loadEm, @function
_ZN3szn12empty_source4loadEm:
.LFB4612:
	.cfi_startproc
	rep ret
	.cfi_endproc
.LFE4612:
	.size	_ZN3szn12empty_source4loadEm, .-_ZN3szn12empty_source4loadEm
	.section	.text._ZN3szn12empty_source4sizeEv,"axG",@progbits,_ZN3szn12empty_source4sizeEv,comdat
	.align 2
	.p2align 4,,15
	.weak	_ZN3szn12empty_source4sizeEv
	.type	_ZN3szn12empty_source4sizeEv, @function
_ZN3szn12empty_source4sizeEv:
.LFB4613:
	.cfi_startproc
	xorl	%eax, %eax
	ret
	.cfi_endproc
.LFE4613:
	.size	_ZN3szn12empty_source4sizeEv, .-_ZN3szn12empty_source4sizeEv
	.section	.text._ZN3szn12empty_source4dropEm,"axG",@progbits,_ZN3szn12empty_source4dropEm,comdat
	.align 2
	.p2align 4,,15
	.weak	_ZN3szn12empty_source4dropEm
	.type	_ZN3szn12empty_source4dropEm, @function
_ZN3szn12empty_source4dropEm:
.LFB4615:
	.cfi_startproc
	rep ret
	.cfi_endproc
.LFE4615:
	.size	_ZN3szn12empty_source4dropEm, .-_ZN3szn12empty_source4dropEm
	.section	.text._ZN3szn12empty_source4dataEv,"axG",@progbits,_ZN3szn12empty_source4dataEv,comdat
	.align 2
	.p2align 4,,15
	.weak	_ZN3szn12empty_source4dataEv
	.type	_ZN3szn12empty_source4dataEv, @function
_ZN3szn12empty_source4dataEv:
.LFB4616:
	.cfi_startproc
	xorl	%eax, %eax
	ret
	.cfi_endproc
.LFE4616:
	.size	_ZN3szn12empty_source4dataEv, .-_ZN3szn12empty_source4dataEv
	.section	.text._ZNK3szn12empty_source9is_stableEv,"axG",@progbits,_ZNK3szn12empty_source9is_stableEv,comdat
	.align 2
	.p2align 4,,15
	.weak	_ZNK3szn12empty_source9is_stableEv
	.type	_ZNK3szn12empty_source9is_stableEv, @function
_ZNK3szn12empty_source9is_stableEv:
.LFB4617:
	.cfi_startproc
	movl	$1, %eax
	ret
	.cfi_endproc
.LFE4617:
	.size	_ZNK3szn12empty_source9is_stableEv, .-_ZNK3szn12empty_source9is_stableEv
	.section	.text._ZN3szn11zero_source4loadEm,"axG",@progbits,_ZN3szn11zero_source4loadEm,comdat
	.align 2
	.p2align 4,,15
	.weak	_ZN3szn11zero_source4loadEm
	.type	_ZN3szn11zero_source4loadEm, @function
_ZN3szn11zero_source4loadEm:
.LFB4618:
	.cfi_startproc
	rep ret
	.cfi_endproc
.LFE4618:
	.size	_ZN3szn11zero_source4loadEm, .-_ZN3szn11zero_source4loadEm
	.section	.text._ZN3szn11zero_source4sizeEv,"axG",@progbits,_ZN3szn11zero_source4sizeEv,comdat
	.align 2
	.p2align 4,,15
	.weak	_ZN3szn11zero_source4sizeEv
	.type	_ZN3szn11zero_source4sizeEv, @function
_ZN3szn11zero_source4sizeEv:
.LFB4619:
	.cfi_startproc
	movl	$1, %eax
	ret
	.cfi_endproc
.LFE4619:
	.size	_ZN3szn11zero_source4sizeEv, .-_ZN3szn11zero_source4sizeEv
	.section	.text._ZN3szn11zero_source3getEm,"axG",@progbits,_ZN3szn11zero_source3getEm,comdat
	.align 2
	.p2align 4,,15
	.weak	_ZN3szn11zero_source3getEm
	.type	_ZN3szn11zero_source3getEm, @function
_ZN3szn11zero_source3getEm:
.LFB4620:
	.cfi_startproc
	xorl	%eax, %eax
	ret
	.cfi_endproc
.LFE4620:
	.size	_ZN3szn11zero_source3getEm, .-_ZN3szn11zero_source3getEm
	.section	.text._ZN3szn11zero_source4dropEm,"axG",@progbits,_ZN3szn11zero_source4dropEm,comdat
	.align 2
	.p2align 4,,15
	.weak	_ZN3szn11zero_source4dropEm
	.type	_ZN3szn11zero_source4dropEm, @function
_ZN3szn11zero_source4dropEm:
.LFB4621:
	.cfi_startproc
	rep ret
	.cfi_endproc
.LFE4621:
	.size	_ZN3szn11zero_source4dropEm, .-_ZN3szn11zero_source4dropEm
	.section	.rodata.str1.1,"aMS",@progbits,1
.LC0:
	.string	""
	.section	.text._ZN3szn11zero_source4dataEv,"axG",@progbits,_ZN3szn11zero_source4dataEv,comdat
	.align 2
	.p2align 4,,15
	.weak	_ZN3szn11zero_source4dataEv
	.type	_ZN3szn11zero_source4dataEv, @function
_ZN3szn11zero_source4dataEv:
.LFB4622:
	.cfi_startproc
	movl	$.LC0, %eax
	ret
	.cfi_endproc
.LFE4622:
	.size	_ZN3szn11zero_source4dataEv, .-_ZN3szn11zero_source4dataEv
	.section	.text._ZNK3szn11zero_source9is_stableEv,"axG",@progbits,_ZNK3szn11zero_source9is_stableEv,comdat
	.align 2
	.p2align 4,,15
	.weak	_ZNK3szn11zero_source9is_stableEv
	.type	_ZNK3szn11zero_source9is_stableEv, @function
_ZNK3szn11zero_source9is_stableEv:
.LFB4623:
	.cfi_startproc
	movl	$1, %eax
	ret
	.cfi_endproc
.LFE4623:
	.size	_ZNK3szn11zero_source9is_stableEv, .-_ZNK3szn11zero_source9is_stableEv
	.section	.text._ZN3szn13stream_source4sizeEv,"axG",@progbits,_ZN3szn13stream_source4sizeEv,comdat
	.align 2
	.p2align 4,,15
	.weak	_ZN3szn13stream_source4sizeEv
	.type	_ZN3szn13stream_source4sizeEv, @function
_ZN3szn13stream_source4sizeEv:
.LFB4632:
	.cfi_startproc
	movq	40(%rdi), %rax
	ret
	.cfi_endproc
.LFE4632:
	.size	_ZN3szn13stream_source4sizeEv, .-_ZN3szn13stream_source4sizeEv
	.section	.text._ZN3szn13stream_source3getEm,"axG",@progbits,_ZN3szn13stream_source3getEm,comdat
	.align 2
	.p2align 4,,15
	.weak	_ZN3szn13stream_source3getEm
	.type	_ZN3szn13stream_source3getEm, @function
_ZN3szn13stream_source3getEm:
.LFB4633:
	.cfi_startproc
	movq	16(%rdi), %rax
	movzbl	(%rax,%rsi), %eax
	ret
	.cfi_endproc
.LFE4633:
	.size	_ZN3szn13stream_source3getEm, .-_ZN3szn13stream_source3getEm
	.section	.text._ZN3szn13stream_source4dataEv,"axG",@progbits,_ZN3szn13stream_source4dataEv,comdat
	.align 2
	.p2align 4,,15
	.weak	_ZN3szn13stream_source4dataEv
	.type	_ZN3szn13stream_source4dataEv, @function
_ZN3szn13stream_source4dataEv:
.LFB4635:
	.cfi_startproc
	movq	16(%rdi), %rdx
	xorl	%eax, %eax
	cmpq	%rdx, 24(%rdi)
	cmovne	%rdx, %rax
	ret
	.cfi_endproc
.LFE4635:
	.size	_ZN3szn13stream_source4dataEv, .-_ZN3szn13stream_source4dataEv
	.section	.text._ZNK3szn13stream_source9is_stableEv,"axG",@progbits,_ZNK3szn13stream_source9is_stableEv,comdat
	.align 2
	.p2align 4,,15
	.weak	_ZNK3szn13stream_source9is_stableEv
	.type	_ZNK3szn13stream_source9is_stableEv, @function
_ZNK3szn13stream_source9is_stableEv:
.LFB4636:
	.cfi_startproc
	xorl	%eax, %eax
	ret
	.cfi_endproc
.LFE4636:
	.size	_ZNK3szn13stream_source9is_stableEv, .-_ZNK3szn13stream_source9is_stableEv
	.section	.text._ZN3szn14failing_source4sizeEv,"axG",@progbits,_ZN3szn14failing_source4sizeEv,comdat
	.align 2
	.p2align 4,,15
	.weak	_ZN3szn14failing_source4sizeEv
	.type	_ZN3szn14failing_source4sizeEv, @function
_ZN3szn14failing_source4sizeEv:
.LFB4638:
	.cfi_startproc
	xorl	%eax, %eax
	ret
	.cfi_endproc
.LFE4638:
	.size	_ZN3szn14failing_source4sizeEv, .-_ZN3szn14failing_source4sizeEv
	.section	.text._ZN3szn14failing_source3getEm,"axG",@progbits,_ZN3szn14failing_source3getEm,comdat
	.align 2
	.p2align 4,,15
	.weak	_ZN3szn14failing_source3getEm
	.type	_ZN3szn14failing_source3getEm, @function
_ZN3szn14failing_source3getEm:
.LFB4639:
	.cfi_startproc
	xorl	%eax, %eax
	ret
	.cfi_endproc
.LFE4639:
	.size	_ZN3szn14failing_source3getEm, .-_ZN3szn14failing_source3getEm
	.section	.text._ZN3szn14failing_source4dropEm,"axG",@progbits,_ZN3szn14failing_source4dropEm,comdat
	.align 2
	.p2align 4,,15
	.weak	_ZN3szn14failing_source4dropEm
	.type	_ZN3szn14failing_source4dropEm, @function
_ZN3szn14failing_source4dropEm:
.LFB4640:
	.cfi_startproc
	rep ret
	.cfi_endproc
.LFE4640:
	.size	_ZN3szn14failing_source4dropEm, .-_ZN3szn14failing_source4dropEm
	.section	.text._ZN3szn14failing_source4dataEv,"axG",@progbits,_ZN3szn14failing_source4dataEv,comdat
	.align 2
	.p2align 4,,15
	.weak	_ZN3szn14failing_source4dataEv
	.type	_ZN3szn14failing_source4dataEv, @function
_ZN3szn14failing_source4dataEv:
.LFB4641:
	.cfi_startproc
	xorl	%eax, %eax
	ret
	.cfi_endproc
.LFE4641:
	.size	_ZN3szn14failing_source4dataEv, .-_ZN3szn14failing_source4dataEv
	.section	.text._ZNK3szn14failing_source9is_stableEv,"axG",@progbits,_ZNK3szn14failing_source9is_stableEv,comdat
	.align 2
	.p2align 4,,15
	.weak	_ZNK3szn14failing_source9is_stableEv
	.type	_ZNK3szn14failing_source9is_stableEv, @function
_ZNK3szn14failing_source9is_stableEv:
.LFB4642:
	.cfi_startproc
	movl	$1, %eax
	ret
	.cfi_endproc
.LFE4642:
	.size	_ZNK3szn14failing_source9is_stableEv, .-_ZNK3szn14failing_source9is_stableEv
	.section	.text._ZN3szn14insertion_sinkISt6vectorIhSaIhEEED2Ev,"axG",@progbits,_ZN3szn14insertion_sinkISt6vectorIhSaIhEEED5Ev,comdat
	.align 2
	.p2align 4,,15
	.weak	_ZN3szn14insertion_sinkISt6vectorIhSaIhEEED2Ev
	.type	_ZN3szn14insertion_sinkISt6vectorIhSaIhEEED2Ev, @function
_ZN3szn14insertion_sinkISt6vectorIhSaIhEEED2Ev:
.LFB5064:
	.cfi_startproc
	movq	$_ZTVN3szn4sinkE+16, (%rdi)
	ret
	.cfi_endproc
.LFE5064:
	.size	_ZN3szn14insertion_sinkISt6vectorIhSaIhEEED2Ev, .-_ZN3szn14insertion_sinkISt6vectorIhSaIhEEED2Ev
	.weak	_ZN3szn14insertion_sinkISt6vectorIhSaIhEEED1Ev
	.set	_ZN3szn14insertion_sinkISt6vectorIhSaIhEEED1Ev,_ZN3szn14insertion_sinkISt6vectorIhSaIhEEED2Ev
	.section	.text._ZN3szn14failing_sourceD2Ev,"axG",@progbits,_ZN3szn14failing_sourceD5Ev,comdat
	.align 2
	.p2align 4,,15
	.weak	_ZN3szn14failing_sourceD2Ev
	.type	_ZN3szn14failing_sourceD2Ev, @function
_ZN3szn14failing_sourceD2Ev:
.LFB5068:
	.cfi_startproc
	movq	$_ZTVN3szn6sourceE+16, (%rdi)
	ret
	.cfi_endproc
.LFE5068:
	.size	_ZN3szn14failing_sourceD2Ev, .-_ZN3szn14failing_sourceD2Ev
	.weak	_ZN3szn14failing_sourceD1Ev
	.set	_ZN3szn14failing_sourceD1Ev,_ZN3szn14failing_sourceD2Ev
	.section	.text._ZN3szn11zero_sourceD2Ev,"axG",@progbits,_ZN3szn11zero_sourceD5Ev,comdat
	.align 2
	.p2align 4,,15
	.weak	_ZN3szn11zero_sourceD2Ev
	.type	_ZN3szn11zero_sourceD2Ev, @function
_ZN3szn11zero_sourceD2Ev:
.LFB5076:
	.cfi_startproc
	movq	$_ZTVN3szn6sourceE+16, (%rdi)
	ret
	.cfi_endproc
.LFE5076:
	.size	_ZN3szn11zero_sourceD2Ev, .-_ZN3szn11zero_sourceD2Ev
	.weak	_ZN3szn11zero_sourceD1Ev
	.set	_ZN3szn11zero_sourceD1Ev,_ZN3szn11zero_sourceD2Ev
	.section	.text._ZN3szn12empty_sourceD2Ev,"axG",@progbits,_ZN3szn12empty_sourceD5Ev,comdat
	.align 2
	.p2align 4,,15
	.weak	_ZN3szn12empty_sourceD2Ev
	.type	_ZN3szn12empty_sourceD2Ev, @function
_ZN3szn12empty_sourceD2Ev:
.LFB5080:
	.cfi_startproc
	movq	$_ZTVN3szn6sourceE+16, (%rdi)
	ret
	.cfi_endproc
.LFE5080:
	.size	_ZN3szn12empty_sourceD2Ev, .-_ZN3szn12empty_sourceD2Ev
	.weak	_ZN3szn12empty_sourceD1Ev
	.set	_ZN3szn12empty_sourceD1Ev,_ZN3szn12empty_sourceD2Ev
	.section	.text._ZN3szn9null_sinkD2Ev,"axG",@progbits,_ZN3szn9null_sinkD5Ev,comdat
	.align 2
	.p2align 4,,15
	.weak	_ZN3szn9null_sinkD2Ev
	.type	_ZN3szn9null_sinkD2Ev, @function
_ZN3szn9null_sinkD2Ev:
.LFB5092:
	.cfi_startproc
	movq	$_ZTVN3szn4sinkE+16, (%rdi)
	ret
	.cfi_endproc
.LFE5092:
	.size	_ZN3szn9null_sinkD2Ev, .-_ZN3szn9null_sinkD2Ev
	.weak	_ZN3szn9null_sinkD1Ev
	.set	_ZN3szn9null_sinkD1Ev,_ZN3szn9null_sinkD2Ev
	.section	.text._ZN3szn4sinkD0Ev,"axG",@progbits,_ZN3szn4sinkD0Ev,comdat
	.align 2
	.p2align 4,,15
	.weak	_ZN3szn4sinkD0Ev
	.type	_ZN3szn4sinkD0Ev, @function
_ZN3szn4sinkD0Ev:
.LFB4239:
	.cfi_startproc
	movq	$_ZTVN3szn4sinkE+16, (%rdi)
	jmp	_ZdlPv
	.cfi_endproc
.LFE4239:
	.size	_ZN3szn4sinkD0Ev, .-_ZN3szn4sinkD0Ev
	.section	.text._ZN3szn6sourceD0Ev,"axG",@progbits,_ZN3szn6sourceD0Ev,comdat
	.align 2
	.p2align 4,,15
	.weak	_ZN3szn6sourceD0Ev
	.type	_ZN3szn6sourceD0Ev, @function
_ZN3szn6sourceD0Ev:
.LFB4600:
	.cfi_startproc
	movq	$_ZTVN3szn6sourceE+16, (%rdi)
	jmp	_ZdlPv
	.cfi_endproc
.LFE4600:
	.size	_ZN3szn6sourceD0Ev, .-_ZN3szn6sourceD0Ev
	.section	.text._ZN3szn14insertion_sinkISt6vectorIhSaIhEEED0Ev,"axG",@progbits,_ZN3szn14insertion_sinkISt6vectorIhSaIhEEED0Ev,comdat
	.align 2
	.p2align 4,,15
	.weak	_ZN3szn14insertion_sinkISt6vectorIhSaIhEEED0Ev
	.type	_ZN3szn14insertion_sinkISt6vectorIhSaIhEEED0Ev, @function
_ZN3szn14insertion_sinkISt6vectorIhSaIhEEED0Ev:
.LFB5066:
	.cfi_startproc
	movq	$_ZTVN3szn4sinkE+16, (%rdi)
	jmp	_ZdlPv
	.cfi_endproc
.LFE5066:
	.size	_ZN3szn14insertion_sinkISt6vectorIhSaIhEEED0Ev, .-_ZN3szn14insertion_sinkISt6vectorIhSaIhEEED0Ev
	.section	.text._ZN3szn14failing_sourceD0Ev,"axG",@progbits,_ZN3szn14failing_sourceD0Ev,comdat
	.align 2
	.p2align 4,,15
	.weak	_ZN3szn14failing_sourceD0Ev
	.type	_ZN3szn14failing_sourceD0Ev, @function
_ZN3szn14failing_sourceD0Ev:
.LFB5070:
	.cfi_startproc
	movq	$_ZTVN3szn6sourceE+16, (%rdi)
	jmp	_ZdlPv
	.cfi_endproc
.LFE5070:
	.size	_ZN3szn14failing_sourceD0Ev, .-_ZN3szn14failing_sourceD0Ev
	.section	.text._ZN3szn11zero_sourceD0Ev,"axG",@progbits,_ZN3szn11zero_sourceD0Ev,comdat
	.align 2
	.p2align 4,,15
	.weak	_ZN3szn11zero_sourceD0Ev
	.type	_ZN3szn11zero_sourceD0Ev, @function
_ZN3szn11zero_sourceD0Ev:
.LFB5078:
	.cfi_startproc
	movq	$_ZTVN3szn6sourceE+16, (%rdi)
	jmp	_ZdlPv
	.cfi_endproc
.LFE5078:
	.size	_ZN3szn11zero_sourceD0Ev, .-_ZN3szn11zero_sourceD0Ev
	.section	.text._ZN3szn12empty_sourceD0Ev,"axG",@progbits,_ZN3szn12empty_sourceD0Ev,comdat
	.align 2
	.p2align 4,,15
	.weak	_ZN3szn12empty_sourceD0Ev
	.type	_ZN3szn12empty_sourceD0Ev, @function
_ZN3szn12empty_sourceD0Ev:
.LFB5082:
	.cfi_startproc
	movq	$_ZTVN3szn6sourceE+16, (%rdi)
	jmp	_ZdlPv
	.cfi_endproc
.LFE5082:
	.size	_ZN3szn12empty_sourceD0Ev, .-_ZN3szn12empty_sourceD0Ev
	.section	.text._ZN3szn9null_sinkD0Ev,"axG",@progbits,_ZN3szn9null_sinkD0Ev,comdat
	.align 2
	.p2align 4,,15
	.weak	_ZN3szn9null_sinkD0Ev
	.type	_ZN3szn9null_sinkD0Ev, @function
_ZN3szn9null_sinkD0Ev:
.LFB5094:
	.cfi_startproc
	movq	$_ZTVN3szn4sinkE+16, (%rdi)
	jmp	_ZdlPv
	.cfi_endproc
.LFE5094:
	.size	_ZN3szn9null_sinkD0Ev, .-_ZN3szn9null_sinkD0Ev
	.section	.text._ZN3szn13stream_sourceD2Ev,"axG",@progbits,_ZN3szn13stream_sourceD5Ev,comdat
	.align 2
	.p2align 4,,15
	.weak	_ZN3szn13stream_sourceD2Ev
	.type	_ZN3szn13stream_sourceD2Ev, @function
_ZN3szn13stream_sourceD2Ev:
.LFB5072:
	.cfi_startproc
	pushq	%rbx
	.cfi_def_cfa_offset 16
	.cfi_offset 3, -16
	movq	%rdi, %rbx
	movq	$_ZTVN3szn13stream_sourceE+16, (%rdi)
	movq	16(%rdi), %rdi
	testq	%rdi, %rdi
	je	.L39
	call	_ZdlPv
.L39:
	movq	$_ZTVN3szn6sourceE+16, (%rbx)
	popq	%rbx
	.cfi_def_cfa_offset 8
	ret
	.cfi_endproc
.LFE5072:
	.size	_ZN3szn13stream_sourceD2Ev, .-_ZN3szn13stream_sourceD2Ev
	.weak	_ZN3szn13stream_sourceD1Ev
	.set	_ZN3szn13stream_sourceD1Ev,_ZN3szn13stream_sourceD2Ev
	.section	.text._ZN3szn13stream_sourceD0Ev,"axG",@progbits,_ZN3szn13stream_sourceD0Ev,comdat
	.align 2
	.p2align 4,,15
	.weak	_ZN3szn13stream_sourceD0Ev
	.type	_ZN3szn13stream_sourceD0Ev, @function
_ZN3szn13stream_sourceD0Ev:
.LFB5074:
	.cfi_startproc
	pushq	%rbx
	.cfi_def_cfa_offset 16
	.cfi_offset 3, -16
	movq	%rdi, %rbx
	movq	$_ZTVN3szn13stream_sourceE+16, (%rdi)
	movq	16(%rdi), %rdi
	testq	%rdi, %rdi
	je	.L46
	call	_ZdlPv
.L46:
	movq	$_ZTVN3szn6sourceE+16, (%rbx)
	movq	%rbx, %rdi
	popq	%rbx
	.cfi_def_cfa_offset 8
	jmp	_ZdlPv
	.cfi_endproc
.LFE5074:
	.size	_ZN3szn13stream_sourceD0Ev, .-_ZN3szn13stream_sourceD0Ev
	.section	.rodata.str1.8,"aMS",@progbits,1
	.align 8
.LC1:
	.string	"You cannot load from an szn::failing_source"
	.section	.text._ZN3szn14failing_source4loadEm,"axG",@progbits,_ZN3szn14failing_source4loadEm,comdat
	.align 2
	.p2align 4,,15
	.weak	_ZN3szn14failing_source4loadEm
	.type	_ZN3szn14failing_source4loadEm, @function
_ZN3szn14failing_source4loadEm:
.LFB4637:
	.cfi_startproc
	.cfi_personality 0x3,__gxx_personality_v0
	.cfi_lsda 0x3,.LLSDA4637
	pushq	%rbp
	.cfi_def_cfa_offset 16
	.cfi_offset 6, -16
	movl	$16, %edi
	pushq	%rbx
	.cfi_def_cfa_offset 24
	.cfi_offset 3, -24
	subq	$40, %rsp
	.cfi_def_cfa_offset 64
	call	__cxa_allocate_exception
	leaq	14(%rsp), %rdx
	movl	$.LC1, %esi
	leaq	16(%rsp), %rdi
	movq	%rax, %rbx
.LEHB0:
	call	_ZNSsC1EPKcRKSaIcE
.LEHE0:
	leaq	16(%rsp), %rsi
	movq	%rbx, %rdi
.LEHB1:
	call	_ZNSt11logic_errorC1ERKSs
.LEHE1:
	movq	16(%rsp), %rax
	leaq	15(%rsp), %rsi
	leaq	-24(%rax), %rdi
	call	_ZNSs4_Rep10_M_disposeERKSaIcE
	movl	$_ZNSt11logic_errorD1Ev, %edx
	movl	$_ZTISt11logic_error, %esi
	movq	%rbx, %rdi
.LEHB2:
	call	__cxa_throw
.L54:
	movq	%rax, %rbp
.L53:
	movq	%rbx, %rdi
	call	__cxa_free_exception
	movq	%rbp, %rdi
	call	_Unwind_Resume
.LEHE2:
.L55:
	leaq	15(%rsp), %rsi
	movq	%rax, %rbp
	movq	16(%rsp), %rax
	leaq	-24(%rax), %rdi
	call	_ZNSs4_Rep10_M_disposeERKSaIcE
	jmp	.L53
	.cfi_endproc
.LFE4637:
	.globl	__gxx_personality_v0
	.section	.gcc_except_table._ZN3szn14failing_source4loadEm,"aG",@progbits,_ZN3szn14failing_source4loadEm,comdat
.LLSDA4637:
	.byte	0xff
	.byte	0xff
	.byte	0x1
	.uleb128 .LLSDACSE4637-.LLSDACSB4637
.LLSDACSB4637:
	.uleb128 .LEHB0-.LFB4637
	.uleb128 .LEHE0-.LEHB0
	.uleb128 .L54-.LFB4637
	.uleb128 0
	.uleb128 .LEHB1-.LFB4637
	.uleb128 .LEHE1-.LEHB1
	.uleb128 .L55-.LFB4637
	.uleb128 0
	.uleb128 .LEHB2-.LFB4637
	.uleb128 .LEHE2-.LEHB2
	.uleb128 0
	.uleb128 0
.LLSDACSE4637:
	.section	.text._ZN3szn14failing_source4loadEm,"axG",@progbits,_ZN3szn14failing_source4loadEm,comdat
	.size	_ZN3szn14failing_source4loadEm, .-_ZN3szn14failing_source4loadEm
	.section	.rodata.str1.8
	.align 8
.LC2:
	.string	"szn::EmptySource cannot be read from"
	.section	.text._ZN3szn12empty_source3getEm,"axG",@progbits,_ZN3szn12empty_source3getEm,comdat
	.align 2
	.p2align 4,,15
	.weak	_ZN3szn12empty_source3getEm
	.type	_ZN3szn12empty_source3getEm, @function
_ZN3szn12empty_source3getEm:
.LFB4614:
	.cfi_startproc
	.cfi_personality 0x3,__gxx_personality_v0
	.cfi_lsda 0x3,.LLSDA4614
	pushq	%rbp
	.cfi_def_cfa_offset 16
	.cfi_offset 6, -16
	movl	$16, %edi
	pushq	%rbx
	.cfi_def_cfa_offset 24
	.cfi_offset 3, -24
	subq	$40, %rsp
	.cfi_def_cfa_offset 64
	call	__cxa_allocate_exception
	leaq	14(%rsp), %rdx
	movl	$.LC2, %esi
	leaq	16(%rsp), %rdi
	movq	%rax, %rbx
.LEHB3:
	call	_ZNSsC1EPKcRKSaIcE
.LEHE3:
	leaq	16(%rsp), %rsi
	movq	%rbx, %rdi
.LEHB4:
	call	_ZNSt13runtime_errorC1ERKSs
.LEHE4:
	movq	16(%rsp), %rax
	leaq	15(%rsp), %rsi
	leaq	-24(%rax), %rdi
	call	_ZNSs4_Rep10_M_disposeERKSaIcE
	movl	$_ZNSt13runtime_errorD1Ev, %edx
	movl	$_ZTISt13runtime_error, %esi
	movq	%rbx, %rdi
.LEHB5:
	call	__cxa_throw
.L60:
	movq	%rax, %rbp
.L59:
	movq	%rbx, %rdi
	call	__cxa_free_exception
	movq	%rbp, %rdi
	call	_Unwind_Resume
.LEHE5:
.L61:
	leaq	15(%rsp), %rsi
	movq	%rax, %rbp
	movq	16(%rsp), %rax
	leaq	-24(%rax), %rdi
	call	_ZNSs4_Rep10_M_disposeERKSaIcE
	jmp	.L59
	.cfi_endproc
.LFE4614:
	.section	.gcc_except_table._ZN3szn12empty_source3getEm,"aG",@progbits,_ZN3szn12empty_source3getEm,comdat
.LLSDA4614:
	.byte	0xff
	.byte	0xff
	.byte	0x1
	.uleb128 .LLSDACSE4614-.LLSDACSB4614
.LLSDACSB4614:
	.uleb128 .LEHB3-.LFB4614
	.uleb128 .LEHE3-.LEHB3
	.uleb128 .L60-.LFB4614
	.uleb128 0
	.uleb128 .LEHB4-.LFB4614
	.uleb128 .LEHE4-.LEHB4
	.uleb128 .L61-.LFB4614
	.uleb128 0
	.uleb128 .LEHB5-.LFB4614
	.uleb128 .LEHE5-.LEHB5
	.uleb128 0
	.uleb128 0
.LLSDACSE4614:
	.section	.text._ZN3szn12empty_source3getEm,"axG",@progbits,_ZN3szn12empty_source3getEm,comdat
	.size	_ZN3szn12empty_source3getEm, .-_ZN3szn12empty_source3getEm
	.section	.text._ZN3szn13stream_source4dropEm,"axG",@progbits,_ZN3szn13stream_source4dropEm,comdat
	.align 2
	.p2align 4,,15
	.weak	_ZN3szn13stream_source4dropEm
	.type	_ZN3szn13stream_source4dropEm, @function
_ZN3szn13stream_source4dropEm:
.LFB4634:
	.cfi_startproc
	pushq	%r12
	.cfi_def_cfa_offset 16
	.cfi_offset 12, -16
	movq	%rsi, %r12
	pushq	%rbp
	.cfi_def_cfa_offset 24
	.cfi_offset 6, -24
	pushq	%rbx
	.cfi_def_cfa_offset 32
	.cfi_offset 3, -32
	movq	%rdi, %rbx
	movq	16(%rdi), %rcx
	leaq	(%rcx,%rsi), %rbp
	cmpq	%rbp, %rcx
	je	.L64
	movq	24(%rdi), %rdx
	xorl	%eax, %eax
	cmpq	%rdx, %rbp
	je	.L65
	subq	%rbp, %rdx
	jne	.L70
.L65:
	addq	%rax, %rcx
	movq	%rcx, 24(%rbx)
.L64:
	subq	%r12, 40(%rbx)
	popq	%rbx
	.cfi_remember_state
	.cfi_def_cfa_offset 24
	popq	%rbp
	.cfi_def_cfa_offset 16
	popq	%r12
	.cfi_def_cfa_offset 8
	ret
	.p2align 4,,10
	.p2align 3
.L70:
	.cfi_restore_state
	movq	%rcx, %rdi
	movq	%rbp, %rsi
	call	memmove
	movq	%rax, %rcx
	movq	24(%rbx), %rax
	subq	%rbp, %rax
	jmp	.L65
	.cfi_endproc
.LFE4634:
	.size	_ZN3szn13stream_source4dropEm, .-_ZN3szn13stream_source4dropEm
	.section	.rodata.str1.1
.LC3:
	.string	"vector::_M_range_insert"
	.section	.text._ZN3szn14insertion_sinkISt6vectorIhSaIhEEE5writeEPKcm,"axG",@progbits,_ZN3szn14insertion_sinkISt6vectorIhSaIhEEE5writeEPKcm,comdat
	.align 2
	.p2align 4,,15
	.weak	_ZN3szn14insertion_sinkISt6vectorIhSaIhEEE5writeEPKcm
	.type	_ZN3szn14insertion_sinkISt6vectorIhSaIhEEE5writeEPKcm, @function
_ZN3szn14insertion_sinkISt6vectorIhSaIhEEE5writeEPKcm:
.LFB4929:
	.cfi_startproc
	pushq	%r15
	.cfi_def_cfa_offset 16
	.cfi_offset 15, -16
	pushq	%r14
	.cfi_def_cfa_offset 24
	.cfi_offset 14, -24
	pushq	%r13
	.cfi_def_cfa_offset 32
	.cfi_offset 13, -32
	pushq	%r12
	.cfi_def_cfa_offset 40
	.cfi_offset 12, -40
	leaq	(%rsi,%rdx), %r12
	pushq	%rbp
	.cfi_def_cfa_offset 48
	.cfi_offset 6, -48
	pushq	%rbx
	.cfi_def_cfa_offset 56
	.cfi_offset 3, -56
	movq	%rsi, %rbx
	subq	$24, %rsp
	.cfi_def_cfa_offset 80
	cmpq	%r12, %rsi
	movq	8(%rdi), %r13
	movq	8(%r13), %rbp
	je	.L71
	movq	16(%r13), %rax
	subq	%rsi, %r12
	subq	%rbp, %rax
	cmpq	%rax, %r12
	ja	.L73
	testq	%r12, %r12
	jle	.L74
	cmpq	$15, %r12
	jbe	.L75
	leaq	16(%rsi), %rax
	cmpq	%rax, %rbp
	leaq	16(%rbp), %rax
	setae	%dl
	cmpq	%rax, %rsi
	setae	%al
	orb	%al, %dl
	je	.L75
	movq	%r12, %rcx
	xorl	%eax, %eax
	xorl	%esi, %esi
	shrq	$4, %rcx
	movq	%rcx, %rdx
	salq	$4, %rdx
.L80:
	movdqu	(%rbx,%rax), %xmm0
	addq	$1, %rsi
	movdqu	%xmm0, 0(%rbp,%rax)
	addq	$16, %rax
	cmpq	%rsi, %rcx
	ja	.L80
	movq	%r12, %rax
	addq	%rdx, %rbx
	addq	%rdx, %rbp
	subq	%rdx, %rax
	cmpq	%rdx, %r12
	je	.L81
	movzbl	(%rbx), %edx
	movb	%dl, 0(%rbp)
	leaq	-1(%rax), %rdx
	testq	%rdx, %rdx
	jle	.L81
	movzbl	1(%rbx), %edx
	cmpq	$2, %rax
	movb	%dl, 1(%rbp)
	je	.L81
	movzbl	2(%rbx), %edx
	cmpq	$3, %rax
	movb	%dl, 2(%rbp)
	je	.L81
	movzbl	3(%rbx), %edx
	cmpq	$4, %rax
	movb	%dl, 3(%rbp)
	je	.L81
	movzbl	4(%rbx), %edx
	cmpq	$5, %rax
	movb	%dl, 4(%rbp)
	je	.L81
	movzbl	5(%rbx), %edx
	cmpq	$6, %rax
	movb	%dl, 5(%rbp)
	je	.L81
	movzbl	6(%rbx), %edx
	cmpq	$7, %rax
	movb	%dl, 6(%rbp)
	je	.L81
	movzbl	7(%rbx), %edx
	cmpq	$8, %rax
	movb	%dl, 7(%rbp)
	je	.L81
	movzbl	8(%rbx), %edx
	cmpq	$9, %rax
	movb	%dl, 8(%rbp)
	je	.L81
	movzbl	9(%rbx), %edx
	cmpq	$10, %rax
	movb	%dl, 9(%rbp)
	je	.L81
	movzbl	10(%rbx), %edx
	cmpq	$11, %rax
	movb	%dl, 10(%rbp)
	je	.L81
	movzbl	11(%rbx), %edx
	cmpq	$12, %rax
	movb	%dl, 11(%rbp)
	je	.L81
	movzbl	12(%rbx), %edx
	cmpq	$13, %rax
	movb	%dl, 12(%rbp)
	je	.L81
	movzbl	13(%rbx), %edx
	cmpq	$14, %rax
	movb	%dl, 13(%rbp)
	je	.L81
	movzbl	14(%rbx), %eax
	movb	%al, 14(%rbp)
.L81:
	movq	8(%r13), %rbp
.L74:
	addq	%rbp, %r12
	movq	%r12, 8(%r13)
.L71:
	addq	$24, %rsp
	.cfi_remember_state
	.cfi_def_cfa_offset 56
	popq	%rbx
	.cfi_def_cfa_offset 48
	popq	%rbp
	.cfi_def_cfa_offset 40
	popq	%r12
	.cfi_def_cfa_offset 32
	popq	%r13
	.cfi_def_cfa_offset 24
	popq	%r14
	.cfi_def_cfa_offset 16
	popq	%r15
	.cfi_def_cfa_offset 8
	ret
	.p2align 4,,10
	.p2align 3
.L73:
	.cfi_restore_state
	movq	0(%r13), %rsi
	movq	%rbp, %r8
	subq	%rsi, %r8
	movq	%r8, %rax
	notq	%rax
	cmpq	%rax, %r12
	ja	.L196
	cmpq	%r8, %r12
	movq	%r8, %rax
	movq	$-1, %r14
	cmovae	%r12, %rax
	addq	%r8, %rax
	jae	.L197
.L84:
	movq	%r14, %rdi
	call	_Znwm
	movq	0(%r13), %rsi
	movq	%rbp, %rdx
	movq	%rax, %r15
	subq	%rsi, %rdx
	movq	%rdx, %r8
.L85:
	testq	%rdx, %rdx
	jne	.L198
.L86:
	addq	%r15, %r8
	testq	%r12, %r12
	jle	.L87
	leaq	16(%r8), %rax
	cmpq	%rax, %rbx
	leaq	16(%rbx), %rax
	setae	%dl
	cmpq	%rax, %r8
	setae	%al
	orb	%al, %dl
	je	.L88
	cmpq	$15, %r12
	jbe	.L88
	movq	%r12, %rcx
	xorl	%edx, %edx
	xorl	%esi, %esi
	shrq	$4, %rcx
	movq	%rcx, %rax
	salq	$4, %rax
.L93:
	movdqu	(%rbx,%rdx), %xmm0
	addq	$1, %rsi
	movdqu	%xmm0, (%r8,%rdx)
	addq	$16, %rdx
	cmpq	%rsi, %rcx
	ja	.L93
	leaq	(%r8,%rax), %rdx
	movq	%r12, %rcx
	addq	%rax, %rbx
	subq	%rax, %rcx
	cmpq	%rax, %r12
	je	.L94
	movzbl	(%rbx), %eax
	movb	%al, (%rdx)
	leaq	-1(%rcx), %rax
	testq	%rax, %rax
	jle	.L94
	movzbl	1(%rbx), %eax
	cmpq	$2, %rcx
	movb	%al, 1(%rdx)
	je	.L94
	movzbl	2(%rbx), %eax
	cmpq	$3, %rcx
	movb	%al, 2(%rdx)
	je	.L94
	movzbl	3(%rbx), %eax
	cmpq	$4, %rcx
	movb	%al, 3(%rdx)
	je	.L94
	movzbl	4(%rbx), %eax
	cmpq	$5, %rcx
	movb	%al, 4(%rdx)
	je	.L94
	movzbl	5(%rbx), %eax
	cmpq	$6, %rcx
	movb	%al, 5(%rdx)
	je	.L94
	movzbl	6(%rbx), %eax
	cmpq	$7, %rcx
	movb	%al, 6(%rdx)
	je	.L94
	movzbl	7(%rbx), %eax
	cmpq	$8, %rcx
	movb	%al, 7(%rdx)
	je	.L94
	movzbl	8(%rbx), %eax
	cmpq	$9, %rcx
	movb	%al, 8(%rdx)
	je	.L94
	movzbl	9(%rbx), %eax
	cmpq	$10, %rcx
	movb	%al, 9(%rdx)
	je	.L94
	movzbl	10(%rbx), %eax
	cmpq	$11, %rcx
	movb	%al, 10(%rdx)
	je	.L94
	movzbl	11(%rbx), %eax
	cmpq	$12, %rcx
	movb	%al, 11(%rdx)
	je	.L94
	movzbl	12(%rbx), %eax
	cmpq	$13, %rcx
	movb	%al, 12(%rdx)
	je	.L94
	movzbl	13(%rbx), %eax
	cmpq	$14, %rcx
	movb	%al, 13(%rdx)
	je	.L94
	movzbl	14(%rbx), %eax
	movb	%al, 14(%rdx)
.L94:
	addq	%r12, %r8
.L87:
	movq	8(%r13), %rbx
	xorl	%eax, %eax
	subq	%rbp, %rbx
	jne	.L199
.L96:
	movq	0(%r13), %rdi
	leaq	(%r8,%rax), %rbx
	testq	%rdi, %rdi
	je	.L97
	call	_ZdlPv
.L97:
	addq	%r15, %r14
	movq	%r15, 0(%r13)
	movq	%rbx, 8(%r13)
	movq	%r14, 16(%r13)
	addq	$24, %rsp
	.cfi_remember_state
	.cfi_def_cfa_offset 56
	popq	%rbx
	.cfi_def_cfa_offset 48
	popq	%rbp
	.cfi_def_cfa_offset 40
	popq	%r12
	.cfi_def_cfa_offset 32
	popq	%r13
	.cfi_def_cfa_offset 24
	popq	%r14
	.cfi_def_cfa_offset 16
	popq	%r15
	.cfi_def_cfa_offset 8
	ret
	.p2align 4,,10
	.p2align 3
.L197:
	.cfi_restore_state
	testq	%rax, %rax
	jne	.L200
	movq	%r8, %rdx
	xorl	%r14d, %r14d
	xorl	%r15d, %r15d
	jmp	.L85
	.p2align 4,,10
	.p2align 3
.L75:
	leaq	0(%rbp,%r12), %rdx
	.p2align 4,,10
	.p2align 3
.L82:
	movzbl	(%rbx), %eax
	addq	$1, %rbp
	addq	$1, %rbx
	movb	%al, -1(%rbp)
	cmpq	%rdx, %rbp
	jne	.L82
	jmp	.L81
	.p2align 4,,10
	.p2align 3
.L199:
	movq	%r8, %rdi
	movq	%rbx, %rdx
	movq	%rbp, %rsi
	call	memmove
	movq	%rax, %r8
	movq	%rbx, %rax
	jmp	.L96
	.p2align 4,,10
	.p2align 3
.L198:
	movq	%r8, %rdx
	movq	%r15, %rdi
	movq	%r8, 8(%rsp)
	call	memmove
	movq	8(%rsp), %r8
	jmp	.L86
	.p2align 4,,10
	.p2align 3
.L88:
	leaq	(%rbx,%r12), %rcx
	movq	%r8, %rdx
	.p2align 4,,10
	.p2align 3
.L95:
	movzbl	(%rbx), %eax
	addq	$1, %rbx
	addq	$1, %rdx
	movb	%al, -1(%rdx)
	cmpq	%rcx, %rbx
	jne	.L95
	jmp	.L94
.L196:
	movl	$.LC3, %edi
	call	_ZSt20__throw_length_errorPKc
.L200:
	movq	%rax, %r14
	jmp	.L84
	.cfi_endproc
.LFE4929:
	.size	_ZN3szn14insertion_sinkISt6vectorIhSaIhEEE5writeEPKcm, .-_ZN3szn14insertion_sinkISt6vectorIhSaIhEEE5writeEPKcm
	.section	.rodata.str1.1
.LC4:
	.string	"vector::_M_default_append"
	.section	.text._ZN3szn13stream_source4loadEm,"axG",@progbits,_ZN3szn13stream_source4loadEm,comdat
	.align 2
	.p2align 4,,15
	.weak	_ZN3szn13stream_source4loadEm
	.type	_ZN3szn13stream_source4loadEm, @function
_ZN3szn13stream_source4loadEm:
.LFB4631:
	.cfi_startproc
	pushq	%r15
	.cfi_def_cfa_offset 16
	.cfi_offset 15, -16
	pushq	%r14
	.cfi_def_cfa_offset 24
	.cfi_offset 14, -24
	pushq	%r13
	.cfi_def_cfa_offset 32
	.cfi_offset 13, -32
	pushq	%r12
	.cfi_def_cfa_offset 40
	.cfi_offset 12, -40
	pushq	%rbp
	.cfi_def_cfa_offset 48
	.cfi_offset 6, -48
	movq	%rsi, %rbp
	pushq	%rbx
	.cfi_def_cfa_offset 56
	.cfi_offset 3, -56
	movq	%rdi, %rbx
	subq	$24, %rsp
	.cfi_def_cfa_offset 80
	movq	16(%rdi), %rsi
	movq	24(%rdi), %rdi
	movq	%rdi, %r12
	subq	%rsi, %r12
	cmpq	%r12, %rbp
	movq	%r12, %rax
	ja	.L238
.L202:
	cmpq	%rbp, %rax
	cmovbe	%rax, %rbp
	movq	%rbp, 40(%rbx)
	addq	$24, %rsp
	.cfi_remember_state
	.cfi_def_cfa_offset 56
	popq	%rbx
	.cfi_def_cfa_offset 48
	popq	%rbp
	.cfi_def_cfa_offset 40
	popq	%r12
	.cfi_def_cfa_offset 32
	popq	%r13
	.cfi_def_cfa_offset 24
	popq	%r14
	.cfi_def_cfa_offset 16
	popq	%r15
	.cfi_def_cfa_offset 8
	ret
	.p2align 4,,10
	.p2align 3
.L238:
	.cfi_restore_state
	movq	%rbp, %r13
	subq	%r12, %r13
	je	.L203
	movq	32(%rbx), %rax
	subq	%rdi, %rax
	cmpq	%rax, %r13
	jbe	.L239
	movq	%r12, %rax
	notq	%rax
	cmpq	%rax, %r13
	ja	.L212
	cmpq	%r12, %r13
	movq	%r12, %rax
	movq	$-1, %r14
	cmovae	%r13, %rax
	addq	%r12, %rax
	jae	.L240
.L206:
	movq	%r14, %rdi
	call	_Znwm
	movq	16(%rbx), %rsi
	movq	24(%rbx), %r8
	movq	%rax, %rcx
	subq	%rsi, %r8
	movq	%r8, %r15
.L207:
	testq	%r8, %r8
	jne	.L241
.L208:
	leaq	(%rcx,%r15), %rdi
	xorl	%esi, %esi
	movq	%rcx, 8(%rsp)
	leaq	(%rdi,%r13), %r15
	movq	%r15, %rdx
	subq	%rdi, %rdx
	call	memset
	movq	16(%rbx), %rdi
	movq	8(%rsp), %rcx
	testq	%rdi, %rdi
	je	.L209
	call	_ZdlPv
	movq	8(%rsp), %rcx
.L209:
	addq	%rcx, %r14
	movq	%rcx, 16(%rbx)
	movq	%rcx, %rsi
	movq	%r15, 24(%rbx)
	movq	%r14, 32(%rbx)
.L203:
	movq	8(%rbx), %rdi
	addq	%r12, %rsi
	movq	%r13, %rdx
	call	_ZNSi4readEPcl
	movq	8(%rbx), %rax
	movq	24(%rbx), %rdi
	movq	16(%rbx), %rsi
	addq	8(%rax), %r12
	movq	%rdi, %rcx
	subq	%rsi, %rcx
	movq	%rcx, %rax
	cmpq	%rcx, %r12
	ja	.L242
	jae	.L202
	leaq	(%rsi,%r12), %rax
	movq	%rax, 24(%rbx)
	subq	%rsi, %rax
	jmp	.L202
	.p2align 4,,10
	.p2align 3
.L242:
	subq	%rcx, %r12
	je	.L202
	movq	32(%rbx), %rax
	subq	%rdi, %rax
	cmpq	%rax, %r12
	jbe	.L243
	movq	%rcx, %rax
	notq	%rax
	cmpq	%rax, %r12
	ja	.L212
	cmpq	%rcx, %r12
	movq	%rcx, %rax
	movq	$-1, %r13
	cmovae	%r12, %rax
	addq	%rcx, %rax
	jae	.L244
.L213:
	movq	%r13, %rdi
	call	_Znwm
	movq	16(%rbx), %rsi
	movq	24(%rbx), %r8
	movq	%rax, %r15
	movq	%rax, %r14
	subq	%rsi, %r8
	movq	%r8, %rcx
.L214:
	testq	%r8, %r8
	jne	.L245
.L215:
	leaq	(%r14,%rcx), %rdi
	xorl	%esi, %esi
	addq	%rdi, %r12
	movq	%r12, %rdx
	subq	%rdi, %rdx
	call	memset
	movq	16(%rbx), %rdi
	testq	%rdi, %rdi
	je	.L216
	call	_ZdlPv
.L216:
	addq	%r14, %r13
	movq	%r12, %rax
	movq	%r14, 16(%rbx)
	movq	%r12, 24(%rbx)
	subq	%r15, %rax
	movq	%r13, 32(%rbx)
	jmp	.L202
	.p2align 4,,10
	.p2align 3
.L239:
	xorl	%esi, %esi
	movq	%r13, %rdx
	call	memset
	movq	16(%rbx), %rsi
	addq	%r13, 24(%rbx)
	jmp	.L203
	.p2align 4,,10
	.p2align 3
.L243:
	movq	%r12, %rdx
	xorl	%esi, %esi
	call	memset
	movq	%r12, %rax
	addq	24(%rbx), %rax
	movq	%rax, 24(%rbx)
	subq	16(%rbx), %rax
	jmp	.L202
.L240:
	testq	%rax, %rax
	jne	.L246
	movq	%r12, %r15
	movq	%r12, %r8
	xorl	%r14d, %r14d
	xorl	%ecx, %ecx
	jmp	.L207
.L244:
	testq	%rax, %rax
	jne	.L247
	movq	%rcx, %r8
	xorl	%r15d, %r15d
	xorl	%r13d, %r13d
	xorl	%r14d, %r14d
	jmp	.L214
.L245:
	movq	%rcx, %rdx
	movq	%r14, %rdi
	movq	%rcx, 8(%rsp)
	call	memmove
	movq	8(%rsp), %rcx
	jmp	.L215
.L241:
	movq	%rcx, %rdi
	movq	%r15, %rdx
	call	memmove
	movq	%rax, %rcx
	jmp	.L208
.L247:
	movq	%rax, %r13
	jmp	.L213
.L212:
	movl	$.LC4, %edi
	call	_ZSt20__throw_length_errorPKc
.L246:
	movq	%rax, %r14
	jmp	.L206
	.cfi_endproc
.LFE4631:
	.size	_ZN3szn13stream_source4loadEm, .-_ZN3szn13stream_source4loadEm
	.section	.text.startup,"ax",@progbits
	.p2align 4,,15
	.globl	main
	.type	main, @function
main:
.LFB4663:
	.cfi_startproc
	.cfi_personality 0x3,__gxx_personality_v0
	.cfi_lsda 0x3,.LLSDA4663
	pushq	%rbp
	.cfi_def_cfa_offset 16
	.cfi_offset 6, -16
	movabsq	$72623860011521656, %rbp
	pushq	%rbx
	.cfi_def_cfa_offset 24
	.cfi_offset 3, -24
	movl	$56, %ebx
	subq	$88, %rsp
	.cfi_def_cfa_offset 112
	movq	$0, 48(%rsp)
	leaq	48(%rsp), %rax
	movq	%rax, 40(%rsp)
	movl	$_ZTVN3szn14insertion_sinkISt6vectorIhSaIhEEEE+16, %eax
	movq	$0, 56(%rsp)
	movq	$0, 64(%rsp)
	movq	$_ZTVN3szn14insertion_sinkISt6vectorIhSaIhEEEE+16, 32(%rsp)
	jmp	.L250
	.p2align 4,,10
	.p2align 3
.L263:
	movq	32(%rsp), %rax
.L250:
	movq	%rbp, %rdx
	movl	%ebx, %ecx
	movq	%rsp, %rsi
	leaq	32(%rsp), %rdi
	shrq	%cl, %rdx
	movb	%dl, (%rsp)
	movl	$1, %edx
.LEHB6:
	call	*16(%rax)
	subl	$8, %ebx
	cmpl	$-8, %ebx
	jne	.L263
	movq	32(%rsp), %rax
	leaq	16(%rsp), %rsi
	movl	$4, %edx
	movl	$-1430532899, 16(%rsp)
	leaq	32(%rsp), %rdi
	call	*16(%rax)
	movq	48(%rsp), %rsi
	movl	$_ZSt4cout, %edi
	movq	56(%rsp), %rdx
	subq	%rsi, %rdx
	call	_ZNSo5writeEPKcl
.LEHE6:
	movq	$_ZTVN3szn4sinkE+16, 32(%rsp)
	movq	48(%rsp), %rdi
	testq	%rdi, %rdi
	je	.L257
	call	_ZdlPv
.L257:
	addq	$88, %rsp
	.cfi_remember_state
	.cfi_def_cfa_offset 24
	xorl	%eax, %eax
	popq	%rbx
	.cfi_def_cfa_offset 16
	popq	%rbp
	.cfi_def_cfa_offset 8
	ret
.L254:
	.cfi_restore_state
	movq	48(%rsp), %rdi
	movq	%rax, %rbx
	movq	$_ZTVN3szn4sinkE+16, 32(%rsp)
	testq	%rdi, %rdi
	je	.L253
	call	_ZdlPv
.L253:
	movq	%rbx, %rdi
.LEHB7:
	call	_Unwind_Resume
.LEHE7:
	.cfi_endproc
.LFE4663:
	.section	.gcc_except_table,"a",@progbits
.LLSDA4663:
	.byte	0xff
	.byte	0xff
	.byte	0x1
	.uleb128 .LLSDACSE4663-.LLSDACSB4663
.LLSDACSB4663:
	.uleb128 .LEHB6-.LFB4663
	.uleb128 .LEHE6-.LEHB6
	.uleb128 .L254-.LFB4663
	.uleb128 0
	.uleb128 .LEHB7-.LFB4663
	.uleb128 .LEHE7-.LEHB7
	.uleb128 0
	.uleb128 0
.LLSDACSE4663:
	.section	.text.startup
	.size	main, .-main
	.p2align 4,,15
	.type	_GLOBAL__sub_I_main, @function
_GLOBAL__sub_I_main:
.LFB5112:
	.cfi_startproc
	subq	$8, %rsp
	.cfi_def_cfa_offset 16
	movl	$_ZStL8__ioinit, %edi
	call	_ZNSt8ios_base4InitC1Ev
	movl	$__dso_handle, %edx
	movl	$_ZStL8__ioinit, %esi
	movl	$_ZNSt8ios_base4InitD1Ev, %edi
	addq	$8, %rsp
	.cfi_def_cfa_offset 8
	jmp	__cxa_atexit
	.cfi_endproc
.LFE5112:
	.size	_GLOBAL__sub_I_main, .-_GLOBAL__sub_I_main
	.section	.init_array,"aw"
	.align 8
	.quad	_GLOBAL__sub_I_main
	.weak	_ZTSN3szn4sinkE
	.section	.rodata._ZTSN3szn4sinkE,"aG",@progbits,_ZTSN3szn4sinkE,comdat
	.type	_ZTSN3szn4sinkE, @object
	.size	_ZTSN3szn4sinkE, 12
_ZTSN3szn4sinkE:
	.string	"N3szn4sinkE"
	.weak	_ZTIN3szn4sinkE
	.section	.rodata._ZTIN3szn4sinkE,"aG",@progbits,_ZTIN3szn4sinkE,comdat
	.align 16
	.type	_ZTIN3szn4sinkE, @object
	.size	_ZTIN3szn4sinkE, 16
_ZTIN3szn4sinkE:
	.quad	_ZTVN10__cxxabiv117__class_type_infoE+16
	.quad	_ZTSN3szn4sinkE
	.weak	_ZTSN3szn9null_sinkE
	.section	.rodata._ZTSN3szn9null_sinkE,"aG",@progbits,_ZTSN3szn9null_sinkE,comdat
	.align 16
	.type	_ZTSN3szn9null_sinkE, @object
	.size	_ZTSN3szn9null_sinkE, 17
_ZTSN3szn9null_sinkE:
	.string	"N3szn9null_sinkE"
	.weak	_ZTIN3szn9null_sinkE
	.section	.rodata._ZTIN3szn9null_sinkE,"aG",@progbits,_ZTIN3szn9null_sinkE,comdat
	.align 16
	.type	_ZTIN3szn9null_sinkE, @object
	.size	_ZTIN3szn9null_sinkE, 24
_ZTIN3szn9null_sinkE:
	.quad	_ZTVN10__cxxabiv120__si_class_type_infoE+16
	.quad	_ZTSN3szn9null_sinkE
	.quad	_ZTIN3szn4sinkE
	.weak	_ZTSN3szn6sourceE
	.section	.rodata._ZTSN3szn6sourceE,"aG",@progbits,_ZTSN3szn6sourceE,comdat
	.type	_ZTSN3szn6sourceE, @object
	.size	_ZTSN3szn6sourceE, 14
_ZTSN3szn6sourceE:
	.string	"N3szn6sourceE"
	.weak	_ZTIN3szn6sourceE
	.section	.rodata._ZTIN3szn6sourceE,"aG",@progbits,_ZTIN3szn6sourceE,comdat
	.align 16
	.type	_ZTIN3szn6sourceE, @object
	.size	_ZTIN3szn6sourceE, 16
_ZTIN3szn6sourceE:
	.quad	_ZTVN10__cxxabiv117__class_type_infoE+16
	.quad	_ZTSN3szn6sourceE
	.weak	_ZTSN3szn12empty_sourceE
	.section	.rodata._ZTSN3szn12empty_sourceE,"aG",@progbits,_ZTSN3szn12empty_sourceE,comdat
	.align 16
	.type	_ZTSN3szn12empty_sourceE, @object
	.size	_ZTSN3szn12empty_sourceE, 21
_ZTSN3szn12empty_sourceE:
	.string	"N3szn12empty_sourceE"
	.weak	_ZTIN3szn12empty_sourceE
	.section	.rodata._ZTIN3szn12empty_sourceE,"aG",@progbits,_ZTIN3szn12empty_sourceE,comdat
	.align 16
	.type	_ZTIN3szn12empty_sourceE, @object
	.size	_ZTIN3szn12empty_sourceE, 24
_ZTIN3szn12empty_sourceE:
	.quad	_ZTVN10__cxxabiv120__si_class_type_infoE+16
	.quad	_ZTSN3szn12empty_sourceE
	.quad	_ZTIN3szn6sourceE
	.weak	_ZTSN3szn11zero_sourceE
	.section	.rodata._ZTSN3szn11zero_sourceE,"aG",@progbits,_ZTSN3szn11zero_sourceE,comdat
	.align 16
	.type	_ZTSN3szn11zero_sourceE, @object
	.size	_ZTSN3szn11zero_sourceE, 20
_ZTSN3szn11zero_sourceE:
	.string	"N3szn11zero_sourceE"
	.weak	_ZTIN3szn11zero_sourceE
	.section	.rodata._ZTIN3szn11zero_sourceE,"aG",@progbits,_ZTIN3szn11zero_sourceE,comdat
	.align 16
	.type	_ZTIN3szn11zero_sourceE, @object
	.size	_ZTIN3szn11zero_sourceE, 24
_ZTIN3szn11zero_sourceE:
	.quad	_ZTVN10__cxxabiv120__si_class_type_infoE+16
	.quad	_ZTSN3szn11zero_sourceE
	.quad	_ZTIN3szn6sourceE
	.weak	_ZTSN3szn13stream_sourceE
	.section	.rodata._ZTSN3szn13stream_sourceE,"aG",@progbits,_ZTSN3szn13stream_sourceE,comdat
	.align 16
	.type	_ZTSN3szn13stream_sourceE, @object
	.size	_ZTSN3szn13stream_sourceE, 22
_ZTSN3szn13stream_sourceE:
	.string	"N3szn13stream_sourceE"
	.weak	_ZTIN3szn13stream_sourceE
	.section	.rodata._ZTIN3szn13stream_sourceE,"aG",@progbits,_ZTIN3szn13stream_sourceE,comdat
	.align 16
	.type	_ZTIN3szn13stream_sourceE, @object
	.size	_ZTIN3szn13stream_sourceE, 24
_ZTIN3szn13stream_sourceE:
	.quad	_ZTVN10__cxxabiv120__si_class_type_infoE+16
	.quad	_ZTSN3szn13stream_sourceE
	.quad	_ZTIN3szn6sourceE
	.weak	_ZTSN3szn14failing_sourceE
	.section	.rodata._ZTSN3szn14failing_sourceE,"aG",@progbits,_ZTSN3szn14failing_sourceE,comdat
	.align 16
	.type	_ZTSN3szn14failing_sourceE, @object
	.size	_ZTSN3szn14failing_sourceE, 23
_ZTSN3szn14failing_sourceE:
	.string	"N3szn14failing_sourceE"
	.weak	_ZTIN3szn14failing_sourceE
	.section	.rodata._ZTIN3szn14failing_sourceE,"aG",@progbits,_ZTIN3szn14failing_sourceE,comdat
	.align 16
	.type	_ZTIN3szn14failing_sourceE, @object
	.size	_ZTIN3szn14failing_sourceE, 24
_ZTIN3szn14failing_sourceE:
	.quad	_ZTVN10__cxxabiv120__si_class_type_infoE+16
	.quad	_ZTSN3szn14failing_sourceE
	.quad	_ZTIN3szn6sourceE
	.weak	_ZTIN3szn14insertion_sinkISt6vectorIhSaIhEEEE
	.section	.rodata._ZTIN3szn14insertion_sinkISt6vectorIhSaIhEEEE,"aG",@progbits,_ZTIN3szn14insertion_sinkISt6vectorIhSaIhEEEE,comdat
	.align 16
	.type	_ZTIN3szn14insertion_sinkISt6vectorIhSaIhEEEE, @object
	.size	_ZTIN3szn14insertion_sinkISt6vectorIhSaIhEEEE, 24
_ZTIN3szn14insertion_sinkISt6vectorIhSaIhEEEE:
	.quad	_ZTVN10__cxxabiv120__si_class_type_infoE+16
	.quad	_ZTSN3szn14insertion_sinkISt6vectorIhSaIhEEEE
	.quad	_ZTIN3szn4sinkE
	.weak	_ZTSN3szn14insertion_sinkISt6vectorIhSaIhEEEE
	.section	.rodata._ZTSN3szn14insertion_sinkISt6vectorIhSaIhEEEE,"aG",@progbits,_ZTSN3szn14insertion_sinkISt6vectorIhSaIhEEEE,comdat
	.align 32
	.type	_ZTSN3szn14insertion_sinkISt6vectorIhSaIhEEEE, @object
	.size	_ZTSN3szn14insertion_sinkISt6vectorIhSaIhEEEE, 42
_ZTSN3szn14insertion_sinkISt6vectorIhSaIhEEEE:
	.string	"N3szn14insertion_sinkISt6vectorIhSaIhEEEE"
	.weak	_ZTVN3szn4sinkE
	.section	.rodata._ZTVN3szn4sinkE,"aG",@progbits,_ZTVN3szn4sinkE,comdat
	.align 32
	.type	_ZTVN3szn4sinkE, @object
	.size	_ZTVN3szn4sinkE, 40
_ZTVN3szn4sinkE:
	.quad	0
	.quad	_ZTIN3szn4sinkE
	.quad	_ZN3szn4sinkD1Ev
	.quad	_ZN3szn4sinkD0Ev
	.quad	__cxa_pure_virtual
	.weak	_ZTVN3szn9null_sinkE
	.section	.rodata._ZTVN3szn9null_sinkE,"aG",@progbits,_ZTVN3szn9null_sinkE,comdat
	.align 32
	.type	_ZTVN3szn9null_sinkE, @object
	.size	_ZTVN3szn9null_sinkE, 40
_ZTVN3szn9null_sinkE:
	.quad	0
	.quad	_ZTIN3szn9null_sinkE
	.quad	_ZN3szn9null_sinkD1Ev
	.quad	_ZN3szn9null_sinkD0Ev
	.quad	_ZN3szn9null_sink5writeEPKcm
	.weak	_ZTVN3szn6sourceE
	.section	.rodata._ZTVN3szn6sourceE,"aG",@progbits,_ZTVN3szn6sourceE,comdat
	.align 32
	.type	_ZTVN3szn6sourceE, @object
	.size	_ZTVN3szn6sourceE, 80
_ZTVN3szn6sourceE:
	.quad	0
	.quad	_ZTIN3szn6sourceE
	.quad	_ZN3szn6sourceD1Ev
	.quad	_ZN3szn6sourceD0Ev
	.quad	__cxa_pure_virtual
	.quad	__cxa_pure_virtual
	.quad	__cxa_pure_virtual
	.quad	__cxa_pure_virtual
	.quad	__cxa_pure_virtual
	.quad	__cxa_pure_virtual
	.weak	_ZTVN3szn12empty_sourceE
	.section	.rodata._ZTVN3szn12empty_sourceE,"aG",@progbits,_ZTVN3szn12empty_sourceE,comdat
	.align 32
	.type	_ZTVN3szn12empty_sourceE, @object
	.size	_ZTVN3szn12empty_sourceE, 80
_ZTVN3szn12empty_sourceE:
	.quad	0
	.quad	_ZTIN3szn12empty_sourceE
	.quad	_ZN3szn12empty_sourceD1Ev
	.quad	_ZN3szn12empty_sourceD0Ev
	.quad	_ZN3szn12empty_source4loadEm
	.quad	_ZN3szn12empty_source4sizeEv
	.quad	_ZN3szn12empty_source3getEm
	.quad	_ZN3szn12empty_source4dropEm
	.quad	_ZN3szn12empty_source4dataEv
	.quad	_ZNK3szn12empty_source9is_stableEv
	.weak	_ZTVN3szn11zero_sourceE
	.section	.rodata._ZTVN3szn11zero_sourceE,"aG",@progbits,_ZTVN3szn11zero_sourceE,comdat
	.align 32
	.type	_ZTVN3szn11zero_sourceE, @object
	.size	_ZTVN3szn11zero_sourceE, 80
_ZTVN3szn11zero_sourceE:
	.quad	0
	.quad	_ZTIN3szn11zero_sourceE
	.quad	_ZN3szn11zero_sourceD1Ev
	.quad	_ZN3szn11zero_sourceD0Ev
	.quad	_ZN3szn11zero_source4loadEm
	.quad	_ZN3szn11zero_source4sizeEv
	.quad	_ZN3szn11zero_source3getEm
	.quad	_ZN3szn11zero_source4dropEm
	.quad	_ZN3szn11zero_source4dataEv
	.quad	_ZNK3szn11zero_source9is_stableEv
	.weak	_ZTVN3szn13stream_sourceE
	.section	.rodata._ZTVN3szn13stream_sourceE,"aG",@progbits,_ZTVN3szn13stream_sourceE,comdat
	.align 32
	.type	_ZTVN3szn13stream_sourceE, @object
	.size	_ZTVN3szn13stream_sourceE, 80
_ZTVN3szn13stream_sourceE:
	.quad	0
	.quad	_ZTIN3szn13stream_sourceE
	.quad	_ZN3szn13stream_sourceD1Ev
	.quad	_ZN3szn13stream_sourceD0Ev
	.quad	_ZN3szn13stream_source4loadEm
	.quad	_ZN3szn13stream_source4sizeEv
	.quad	_ZN3szn13stream_source3getEm
	.quad	_ZN3szn13stream_source4dropEm
	.quad	_ZN3szn13stream_source4dataEv
	.quad	_ZNK3szn13stream_source9is_stableEv
	.weak	_ZTVN3szn14failing_sourceE
	.section	.rodata._ZTVN3szn14failing_sourceE,"aG",@progbits,_ZTVN3szn14failing_sourceE,comdat
	.align 32
	.type	_ZTVN3szn14failing_sourceE, @object
	.size	_ZTVN3szn14failing_sourceE, 80
_ZTVN3szn14failing_sourceE:
	.quad	0
	.quad	_ZTIN3szn14failing_sourceE
	.quad	_ZN3szn14failing_sourceD1Ev
	.quad	_ZN3szn14failing_sourceD0Ev
	.quad	_ZN3szn14failing_source4loadEm
	.quad	_ZN3szn14failing_source4sizeEv
	.quad	_ZN3szn14failing_source3getEm
	.quad	_ZN3szn14failing_source4dropEm
	.quad	_ZN3szn14failing_source4dataEv
	.quad	_ZNK3szn14failing_source9is_stableEv
	.weak	_ZTVN3szn14insertion_sinkISt6vectorIhSaIhEEEE
	.section	.rodata._ZTVN3szn14insertion_sinkISt6vectorIhSaIhEEEE,"aG",@progbits,_ZTVN3szn14insertion_sinkISt6vectorIhSaIhEEEE,comdat
	.align 32
	.type	_ZTVN3szn14insertion_sinkISt6vectorIhSaIhEEEE, @object
	.size	_ZTVN3szn14insertion_sinkISt6vectorIhSaIhEEEE, 40
_ZTVN3szn14insertion_sinkISt6vectorIhSaIhEEEE:
	.quad	0
	.quad	_ZTIN3szn14insertion_sinkISt6vectorIhSaIhEEEE
	.quad	_ZN3szn14insertion_sinkISt6vectorIhSaIhEEED1Ev
	.quad	_ZN3szn14insertion_sinkISt6vectorIhSaIhEEED0Ev
	.quad	_ZN3szn14insertion_sinkISt6vectorIhSaIhEEE5writeEPKcm
	.local	_ZStL8__ioinit
	.comm	_ZStL8__ioinit,1,1
	.hidden	__dso_handle
	.ident	"GCC: (Ubuntu/Linaro 4.8.1-10ubuntu8) 4.8.1"
	.section	.note.GNU-stack,"",@progbits
